; Function Attrs: mustprogress uwtable
define noalias ptr @lean_io_mono_nanos_now(ptr noundef readnone captures(none) %0) local_unnamed_addr #0 {
  %2 = tail call i64 @_ZNSt6chrono3_V212steady_clock3nowEv() #27
  %3 = icmp sgt i64 %2, -1
  br i1 %3, label %4, label %8, !prof !10

4:                                                ; preds = %1
  %5 = shl nuw i64 %2, 1
  %6 = or disjoint i64 %5, 1
  %7 = inttoptr i64 %6 to ptr
  br label %_ZN4lean13uint64_to_natEm.exit

8:                                                ; preds = %1
  %9 = tail call ptr @lean_big_uint64_to_nat(i64 noundef %2)
  br label %_ZN4lean13uint64_to_natEm.exit

_ZN4lean13uint64_to_natEm.exit:                   ; preds = %4, %8
  %.0.i.i = phi ptr [ %7, %4 ], [ %9, %8 ]
  tail call void @lean_inc_heartbeat()
  %10 = tail call noalias ptr @mi_malloc_small(i64 noundef 24) #27
  %11 = icmp eq ptr %10, null
  br i1 %11, label %12, label %_ZN4lean15io_result_mk_okEP11lean_object.exit

12:                                               ; preds = %_ZN4lean13uint64_to_natEm.exit
  tail call void @lean_internal_panic_out_of_memory() #28
  unreachable

_ZN4lean15io_result_mk_okEP11lean_object.exit:    ; preds = %_ZN4lean13uint64_to_natEm.exit
  %13 = getelementptr inbounds nuw i8, ptr %10, i64 4
  store i32 1, ptr %10, align 4, !tbaa !7
  store i32 131096, ptr %13, align 4
  %14 = getelementptr inbounds nuw i8, ptr %10, i64 8
  store ptr %.0.i.i, ptr %14, align 8, !tbaa !3
  %15 = getelementptr inbounds nuw i8, ptr %10, i64 16
  store ptr inttoptr (i64 1 to ptr), ptr %15, align 8, !tbaa !3
  ret ptr %10
}